target datalayout = "e-m:e-p270:32:32-p271:32:32-p272:64:64-i64:64-i128:128-f80:128-n8:16:32:64-S128"
target triple = "x86_64-pc-linux-gnu"

%struct.WebPWorkerInterface = type { ptr, ptr, ptr, ptr, ptr, ptr }

@g_worker_interface = internal global %struct.WebPWorkerInterface { ptr @Init, ptr @Reset, ptr @Sync, ptr @Launch, ptr @Execute, ptr @End }, align 8

; Function Attrs: nounwind uwtable
define i32 @WebPSetWorkerInterface(ptr noundef %0) #0 {
  %2 = alloca i32, align 4
  %3 = alloca ptr, align 8
  store ptr %0, ptr %3, align 8, !tbaa !3
  %4 = load ptr, ptr %3, align 8, !tbaa !3
  %5 = icmp eq ptr %4, null
  br i1 %5, label %36, label %6

6:                                                ; preds = %1
  %7 = load ptr, ptr %3, align 8, !tbaa !3
  %8 = getelementptr inbounds nuw %struct.WebPWorkerInterface, ptr %7, i32 0, i32 0
  %9 = load ptr, ptr %8, align 8, !tbaa !7
  %10 = icmp eq ptr %9, null
  br i1 %10, label %36, label %11

11:                                               ; preds = %6
  %12 = load ptr, ptr %3, align 8, !tbaa !3
  %13 = getelementptr inbounds nuw %struct.WebPWorkerInterface, ptr %12, i32 0, i32 1
  %14 = load ptr, ptr %13, align 8, !tbaa !9
  %15 = icmp eq ptr %14, null
  br i1 %15, label %36, label %16

16:                                               ; preds = %11
  %17 = load ptr, ptr %3, align 8, !tbaa !3
  %18 = getelementptr inbounds nuw %struct.WebPWorkerInterface, ptr %17, i32 0, i32 2
  %19 = load ptr, ptr %18, align 8, !tbaa !10
  %20 = icmp eq ptr %19, null
  br i1 %20, label %36, label %21

21:                                               ; preds = %16
  %22 = load ptr, ptr %3, align 8, !tbaa !3
  %23 = getelementptr inbounds nuw %struct.WebPWorkerInterface, ptr %22, i32 0, i32 3
  %24 = load ptr, ptr %23, align 8, !tbaa !11
  %25 = icmp eq ptr %24, null
  br i1 %25, label %36, label %26

26:                                               ; preds = %21
  %27 = load ptr, ptr %3, align 8, !tbaa !3
  %28 = getelementptr inbounds nuw %struct.WebPWorkerInterface, ptr %27, i32 0, i32 4
  %29 = load ptr, ptr %28, align 8, !tbaa !12
  %30 = icmp eq ptr %29, null
  br i1 %30, label %36, label %31

31:                                               ; preds = %26
  %32 = load ptr, ptr %3, align 8, !tbaa !3
  %33 = getelementptr inbounds nuw %struct.WebPWorkerInterface, ptr %32, i32 0, i32 5
  %34 = load ptr, ptr %33, align 8, !tbaa !13
  %35 = icmp eq ptr %34, null
  br i1 %35, label %36, label %37

36:                                               ; preds = %31, %26, %21, %16, %11, %6, %1
  store i32 0, ptr %2, align 4
  br label %39

37:                                               ; preds = %31
  %38 = load ptr, ptr %3, align 8, !tbaa !3
  call void @llvm.memcpy.p0.p0.i64(ptr align 8 @g_worker_interface, ptr align 8 %38, i64 48, i1 false), !tbaa.struct !14
  store i32 1, ptr %2, align 4
  br label %39

39:                                               ; preds = %37, %36
  %40 = load i32, ptr %2, align 4
  ret i32 %40
}